target datalayout = "e-m:e-p270:32:32-p271:32:32-p272:64:64-i64:64-i128:128-f80:128-n8:16:32:64-S128"
target triple = "x86_64-pc-linux-gnu"

%struct.AVFormatContext = type { ptr, ptr, ptr, ptr, ptr, i32, i32, ptr, i32, ptr, i32, ptr, ptr, i64, i64, i64, i32, i32, i32, i64, i64, ptr, i32, i32, ptr, i32, i32, i32, i32, ptr, i64, i32, i32, %struct.AVIOInterruptCB, i32, i32, i32, i32, i64, i32, i32, i32, i32, i32, i32, i32, i32, i32, i32, i32, i32, i64, i32, i32, i32, i32, i32, ptr, ptr, ptr, ptr, i32, ptr, ptr, ptr, ptr, i32, ptr, ptr, i64, ptr, ptr, ptr, i64 }
%struct.AVIOInterruptCB = type { ptr, ptr }
%struct.ogg = type { ptr, i32, i32, i32, i64, ptr }
%struct.ogg_stream = type { ptr, i32, i32, i32, i32, i32, i32, i32, i64, i64, i64, i64, i64, i64, i32, ptr, i32, i32, i32, [255 x i8], i32, i32, i32, i32, i32, i32, i32, i32, ptr, i64, ptr }
%struct.AVStream = type { ptr, i32, i32, ptr, ptr, %struct.AVRational, i64, i64, i64, i32, i32, %struct.AVRational, ptr, %struct.AVRational, %struct.AVPacket, i32, %struct.AVRational, i32 }
%struct.AVPacket = type { ptr, i64, i64, ptr, i32, i32, i32, ptr, i32, i64, i64, ptr, ptr, %struct.AVRational }
%struct.AVRational = type { i32, i32 }

@.str.18 = private unnamed_addr constant [90 x i8] c"New streams are not supposed to be added in between Ogg context save/restore operations.\0A\00", align 1

; Function Attrs: nounwind uwtable
define internal i32 @ogg_new_stream(ptr noundef %0, i32 noundef %1) #0 {
  %3 = alloca i32, align 4
  %4 = alloca ptr, align 8
  %5 = alloca i32, align 4
  %6 = alloca ptr, align 8
  %7 = alloca i32, align 4
  %8 = alloca ptr, align 8
  %9 = alloca ptr, align 8
  %10 = alloca i32, align 4
  store ptr %0, ptr %4, align 8, !tbaa !14
  store i32 %1, ptr %5, align 4, !tbaa !37
  call void @llvm.lifetime.start.p0(i64 8, ptr %6) #10
  %11 = load ptr, ptr %4, align 8, !tbaa !14
  %12 = getelementptr inbounds nuw %struct.AVFormatContext, ptr %11, i32 0, i32 3
  %13 = load ptr, ptr %12, align 8, !tbaa !16
  store ptr %13, ptr %6, align 8, !tbaa !31
  call void @llvm.lifetime.start.p0(i64 4, ptr %7) #10
  %14 = load ptr, ptr %6, align 8, !tbaa !31
  %15 = getelementptr inbounds nuw %struct.ogg, ptr %14, i32 0, i32 1
  %16 = load i32, ptr %15, align 8, !tbaa !41
  store i32 %16, ptr %7, align 4, !tbaa !37
  call void @llvm.lifetime.start.p0(i64 8, ptr %8) #10
  call void @llvm.lifetime.start.p0(i64 8, ptr %9) #10
  %17 = load ptr, ptr %6, align 8, !tbaa !31
  %18 = getelementptr inbounds nuw %struct.ogg, ptr %17, i32 0, i32 5
  %19 = load ptr, ptr %18, align 8, !tbaa !144
  %20 = icmp ne ptr %19, null
  br i1 %20, label %21, label %23

21:                                               ; preds = %2
  %22 = load ptr, ptr %4, align 8, !tbaa !14
  call void (ptr, i32, ptr, ...) @av_log(ptr noundef %22, i32 noundef 16, ptr noundef @.str.18)
  store i32 -558323010, ptr %3, align 4
  store i32 1, ptr %10, align 4
  br label %86

23:                                               ; preds = %2
  %24 = load ptr, ptr %6, align 8, !tbaa !31
  %25 = getelementptr inbounds nuw %struct.ogg, ptr %24, i32 0, i32 0
  %26 = load ptr, ptr %25, align 8, !tbaa !42
  %27 = load ptr, ptr %6, align 8, !tbaa !31
  %28 = getelementptr inbounds nuw %struct.ogg, ptr %27, i32 0, i32 1
  %29 = load i32, ptr %28, align 8, !tbaa !41
  %30 = add nsw i32 %29, 1
  %31 = sext i32 %30 to i64
  %32 = call ptr @av_realloc_array(ptr noundef %26, i64 noundef %31, i64 noundef 432)
  store ptr %32, ptr %9, align 8, !tbaa !43
  %33 = icmp ne ptr %32, null
  br i1 %33, label %35, label %34

34:                                               ; preds = %23
  store i32 -12, ptr %3, align 4
  store i32 1, ptr %10, align 4
  br label %86

35:                                               ; preds = %23
  %36 = load ptr, ptr %9, align 8, !tbaa !43
  %37 = load ptr, ptr %6, align 8, !tbaa !31
  %38 = getelementptr inbounds nuw %struct.ogg, ptr %37, i32 0, i32 0
  store ptr %36, ptr %38, align 8, !tbaa !42
  %39 = load ptr, ptr %6, align 8, !tbaa !31
  %40 = getelementptr inbounds nuw %struct.ogg, ptr %39, i32 0, i32 0
  %41 = load ptr, ptr %40, align 8, !tbaa !42
  %42 = load i32, ptr %7, align 4, !tbaa !37
  %43 = sext i32 %42 to i64
  %44 = getelementptr inbounds %struct.ogg_stream, ptr %41, i64 %43
  store ptr %44, ptr %9, align 8, !tbaa !43
  %45 = load ptr, ptr %9, align 8, !tbaa !43
  call void @llvm.memset.p0.i64(ptr align 8 %45, i8 0, i64 432, i1 false)
  %46 = load i32, ptr %5, align 4, !tbaa !37
  %47 = load ptr, ptr %9, align 8, !tbaa !43
  %48 = getelementptr inbounds nuw %struct.ogg_stream, ptr %47, i32 0, i32 7
  store i32 %46, ptr %48, align 8, !tbaa !139
  %49 = load ptr, ptr %9, align 8, !tbaa !43
  %50 = getelementptr inbounds nuw %struct.ogg_stream, ptr %49, i32 0, i32 1
  store i32 65307, ptr %50, align 8, !tbaa !141
  %51 = load ptr, ptr %9, align 8, !tbaa !43
  %52 = getelementptr inbounds nuw %struct.ogg_stream, ptr %51, i32 0, i32 1
  %53 = load i32, ptr %52, align 8, !tbaa !141
  %54 = add i32 %53, 64
  %55 = zext i32 %54 to i64
  %56 = call noalias ptr @av_malloc(i64 noundef %55)
  %57 = load ptr, ptr %9, align 8, !tbaa !43
  %58 = getelementptr inbounds nuw %struct.ogg_stream, ptr %57, i32 0, i32 0
  store ptr %56, ptr %58, align 8, !tbaa !74
  %59 = load ptr, ptr %9, align 8, !tbaa !43
  %60 = getelementptr inbounds nuw %struct.ogg_stream, ptr %59, i32 0, i32 16
  store i32 -1, ptr %60, align 8, !tbaa !44
  %61 = load ptr, ptr %9, align 8, !tbaa !43
  %62 = getelementptr inbounds nuw %struct.ogg_stream, ptr %61, i32 0, i32 9
  store i64 -1, ptr %62, align 8, !tbaa !52
  %63 = load ptr, ptr %9, align 8, !tbaa !43
  %64 = getelementptr inbounds nuw %struct.ogg_stream, ptr %63, i32 0, i32 0
  %65 = load ptr, ptr %64, align 8, !tbaa !74
  %66 = icmp ne ptr %65, null
  br i1 %66, label %68, label %67

67:                                               ; preds = %35
  store i32 -12, ptr %3, align 4
  store i32 1, ptr %10, align 4
  br label %86

68:                                               ; preds = %35
  %69 = load ptr, ptr %4, align 8, !tbaa !14
  %70 = call ptr @avformat_new_stream(ptr noundef %69, ptr noundef null)
  store ptr %70, ptr %8, align 8, !tbaa !54
  %71 = load ptr, ptr %8, align 8, !tbaa !54
  %72 = icmp ne ptr %71, null
  br i1 %72, label %76, label %73

73:                                               ; preds = %68
  %74 = load ptr, ptr %9, align 8, !tbaa !43
  %75 = getelementptr inbounds nuw %struct.ogg_stream, ptr %74, i32 0, i32 0
  call void @av_freep(ptr noundef %75)
  store i32 -12, ptr %3, align 4
  store i32 1, ptr %10, align 4
  br label %86

76:                                               ; preds = %68
  %77 = load i32, ptr %7, align 4, !tbaa !37
  %78 = load ptr, ptr %8, align 8, !tbaa !54
  %79 = getelementptr inbounds nuw %struct.AVStream, ptr %78, i32 0, i32 2
  store i32 %77, ptr %79, align 4, !tbaa !145
  %80 = load ptr, ptr %8, align 8, !tbaa !54
  call void @avpriv_set_pts_info(ptr noundef %80, i32 noundef 64, i32 noundef 1, i32 noundef 1000000)
  %81 = load ptr, ptr %6, align 8, !tbaa !31
  %82 = getelementptr inbounds nuw %struct.ogg, ptr %81, i32 0, i32 1
  %83 = load i32, ptr %82, align 8, !tbaa !41
  %84 = add nsw i32 %83, 1
  store i32 %84, ptr %82, align 8, !tbaa !41
  %85 = load i32, ptr %7, align 4, !tbaa !37
  store i32 %85, ptr %3, align 4
  store i32 1, ptr %10, align 4
  br label %86

86:                                               ; preds = %76, %73, %67, %34, %21
  call void @llvm.lifetime.end.p0(i64 8, ptr %9) #10
  call void @llvm.lifetime.end.p0(i64 8, ptr %8) #10
  call void @llvm.lifetime.end.p0(i64 4, ptr %7) #10
  call void @llvm.lifetime.end.p0(i64 8, ptr %6) #10
  %87 = load i32, ptr %3, align 4
  ret i32 %87
}