; Function Attrs: nounwind uwtable
define internal fastcc i32 @ogg_new_stream(ptr noundef %0, i32 noundef %1) unnamed_addr #1 {
  %3 = getelementptr inbounds nuw i8, ptr %0, i64 24
  %4 = load ptr, ptr %3, align 8, !tbaa !12
  %5 = getelementptr inbounds nuw i8, ptr %4, i64 8
  %6 = load i32, ptr %5, align 8, !tbaa !34
  %7 = getelementptr inbounds nuw i8, ptr %4, i64 32
  %8 = load ptr, ptr %7, align 8, !tbaa !129
  %.not = icmp eq ptr %8, null
  br i1 %.not, label %10, label %9

9:                                                ; preds = %2
  tail call void (ptr, i32, ptr, ...) @av_log(ptr noundef nonnull %0, i32 noundef 16, ptr noundef nonnull @.str.18) #9
  br label %30

10:                                               ; preds = %2
  %11 = load ptr, ptr %4, align 8, !tbaa !35
  %12 = add nsw i32 %6, 1
  %13 = sext i32 %12 to i64
  %14 = tail call ptr @av_realloc_array(ptr noundef %11, i64 noundef %13, i64 noundef 432) #9
  %.not29 = icmp eq ptr %14, null
  br i1 %.not29, label %30, label %15

15:                                               ; preds = %10
  store ptr %14, ptr %4, align 8, !tbaa !35
  %16 = sext i32 %6 to i64
  %17 = getelementptr inbounds %struct.ogg_stream, ptr %14, i64 %16
  tail call void @llvm.memset.p0.i64(ptr noundef nonnull align 8 dereferenceable(432) %17, i8 0, i64 432, i1 false)
  %18 = getelementptr inbounds nuw i8, ptr %17, i64 32
  store i32 %1, ptr %18, align 8, !tbaa !125
  %19 = getelementptr inbounds nuw i8, ptr %17, i64 8
  store i32 65307, ptr %19, align 8, !tbaa !127
  %20 = tail call noalias ptr @av_malloc(i64 noundef 65371) #9
  store ptr %20, ptr %17, align 8, !tbaa !95
  %21 = getelementptr inbounds nuw i8, ptr %17, i64 104
  store i32 -1, ptr %21, align 8, !tbaa !36
  %22 = getelementptr inbounds nuw i8, ptr %17, i64 48
  store i64 -1, ptr %22, align 8, !tbaa !44
  %.not30 = icmp eq ptr %20, null
  br i1 %.not30, label %30, label %23

23:                                               ; preds = %15
  %24 = tail call ptr @avformat_new_stream(ptr noundef nonnull %0, ptr noundef null) #9
  %.not31 = icmp eq ptr %24, null
  br i1 %.not31, label %25, label %26

25:                                               ; preds = %23
  tail call void @av_freep(ptr noundef nonnull %17) #9
  br label %30

26:                                               ; preds = %23
  %27 = getelementptr inbounds nuw i8, ptr %24, i64 12
  store i32 %6, ptr %27, align 4, !tbaa !130
  tail call void @avpriv_set_pts_info(ptr noundef nonnull %24, i32 noundef 64, i32 noundef 1, i32 noundef 1000000) #9
  %28 = load i32, ptr %5, align 8, !tbaa !34
  %29 = add nsw i32 %28, 1
  store i32 %29, ptr %5, align 8, !tbaa !34
  br label %30

30:                                               ; preds = %15, %10, %26, %25, %9
  %.0 = phi i32 [ -558323010, %9 ], [ %6, %26 ], [ -12, %25 ], [ -12, %10 ], [ -12, %15 ]
  ret i32 %.0
}